; Function Attrs: mustprogress uwtable
define internal noundef i32 @_ZN12_GLOBAL__N_130cmFileDownloadProgressCallbackEPvllll(ptr noundef nonnull captures(none) %0, i64 noundef %1, i64 noundef %2, i64 %3, i64 %4) #5 personality ptr @__gxx_personality_v0 {
  %6 = alloca %"class.std::__cxx11::basic_string", align 8
  call void @llvm.lifetime.start.p0(i64 32, ptr nonnull %6) #29
  %7 = getelementptr inbounds nuw i8, ptr %6, i64 16
  store ptr %7, ptr %6, align 8, !tbaa !4
  %8 = getelementptr inbounds nuw i8, ptr %6, i64 8
  store i64 0, ptr %8, align 8, !tbaa !15
  store i8 0, ptr %7, align 8, !tbaa !14
  %9 = invoke fastcc noundef zeroext i1 @_ZN12_GLOBAL__N_118cURLProgressHelper16UpdatePercentageEllRNSt7__cxx1112basic_stringIcSt11char_traitsIcESaIcEEE(ptr noundef nonnull align 8 dereferenceable(48) %0, i64 noundef %2, i64 noundef %1, ptr noundef nonnull align 8 dereferenceable(32) %6)
          to label %10 unwind label %13

10:                                               ; preds = %5
  br i1 %9, label %11, label %17

11:                                               ; preds = %10
  %12 = getelementptr i8, ptr %0, i64 8
  %.val = load ptr, ptr %12, align 8, !tbaa !1042
  invoke void @_ZNK10cmMakefile13DisplayStatusERKNSt7__cxx1112basic_stringIcSt11char_traitsIcESaIcEEEf(ptr noundef nonnull align 8 dereferenceable(2880) %.val, ptr noundef nonnull align 8 dereferenceable(32) %6, float noundef -1.000000e+00)
          to label %17 unwind label %15

13:                                               ; preds = %5
  %14 = landingpad { ptr, i32 }
          cleanup
  br label %24

15:                                               ; preds = %11
  %16 = landingpad { ptr, i32 }
          cleanup
  br label %24

17:                                               ; preds = %11, %10
  %18 = load ptr, ptr %6, align 8, !tbaa !12
  %19 = icmp eq ptr %18, %7
  br i1 %19, label %_ZNKSt7__cxx1112basic_stringIcSt11char_traitsIcESaIcEE11_M_is_localEv.exit.thread.i.i, label %_ZNKSt7__cxx1112basic_stringIcSt11char_traitsIcESaIcEE11_M_is_localEv.exit.i.i

_ZNKSt7__cxx1112basic_stringIcSt11char_traitsIcESaIcEE11_M_is_localEv.exit.thread.i.i: ; preds = %17
  %20 = load i64, ptr %8, align 8, !tbaa !15
  %21 = icmp ult i64 %20, 16
  call void @llvm.assume(i1 %21)
  br label %_ZNSt7__cxx1112basic_stringIcSt11char_traitsIcESaIcEED2Ev.exit

_ZNKSt7__cxx1112basic_stringIcSt11char_traitsIcESaIcEE11_M_is_localEv.exit.i.i: ; preds = %17
  %22 = load i64, ptr %7, align 8, !tbaa !14
  %23 = add i64 %22, 1
  call void @_ZdlPvm(ptr noundef %18, i64 noundef %23) #30
  br label %_ZNSt7__cxx1112basic_stringIcSt11char_traitsIcESaIcEED2Ev.exit

_ZNSt7__cxx1112basic_stringIcSt11char_traitsIcESaIcEED2Ev.exit: ; preds = %_ZNKSt7__cxx1112basic_stringIcSt11char_traitsIcESaIcEE11_M_is_localEv.exit.thread.i.i, %_ZNKSt7__cxx1112basic_stringIcSt11char_traitsIcESaIcEE11_M_is_localEv.exit.i.i
  call void @llvm.lifetime.end.p0(i64 32, ptr nonnull %6) #29
  ret i32 0

24:                                               ; preds = %15, %13
  %.pn = phi { ptr, i32 } [ %16, %15 ], [ %14, %13 ]
  %25 = load ptr, ptr %6, align 8, !tbaa !12
  %26 = icmp eq ptr %25, %7
  br i1 %26, label %_ZNKSt7__cxx1112basic_stringIcSt11char_traitsIcESaIcEE11_M_is_localEv.exit.thread.i.i10, label %_ZNKSt7__cxx1112basic_stringIcSt11char_traitsIcESaIcEE11_M_is_localEv.exit.i.i9

_ZNKSt7__cxx1112basic_stringIcSt11char_traitsIcESaIcEE11_M_is_localEv.exit.thread.i.i10: ; preds = %24
  %27 = load i64, ptr %8, align 8, !tbaa !15
  %28 = icmp ult i64 %27, 16
  call void @llvm.assume(i1 %28)
  br label %_ZNSt7__cxx1112basic_stringIcSt11char_traitsIcESaIcEED2Ev.exit11

_ZNKSt7__cxx1112basic_stringIcSt11char_traitsIcESaIcEE11_M_is_localEv.exit.i.i9: ; preds = %24
  %29 = load i64, ptr %7, align 8, !tbaa !14
  %30 = add i64 %29, 1
  call void @_ZdlPvm(ptr noundef %25, i64 noundef %30) #30
  br label %_ZNSt7__cxx1112basic_stringIcSt11char_traitsIcESaIcEED2Ev.exit11

_ZNSt7__cxx1112basic_stringIcSt11char_traitsIcESaIcEED2Ev.exit11: ; preds = %_ZNKSt7__cxx1112basic_stringIcSt11char_traitsIcESaIcEE11_M_is_localEv.exit.thread.i.i10, %_ZNKSt7__cxx1112basic_stringIcSt11char_traitsIcESaIcEE11_M_is_localEv.exit.i.i9
  call void @llvm.lifetime.end.p0(i64 32, ptr nonnull %6) #29
  resume { ptr, i32 } %.pn
}